; Function Attrs: mustprogress uwtable
define i64 @_ZNK8QuantLib5Libor12maturityDateERKNS_4DateE(ptr noundef nonnull align 8 dereferenceable(304) %this, ptr noundef nonnull align 8 dereferenceable(8) %valueDate) unnamed_addr #6 align 2 {
entry:
  %jointCalendar_ = getelementptr inbounds nuw i8, ptr %this, i64 288
  %tenor_ = getelementptr inbounds nuw i8, ptr %this, i64 144
  %convention_ = getelementptr inbounds nuw i8, ptr %this, i64 240
  %0 = load i32, ptr %convention_, align 8, !tbaa !71
  %endOfMonth_.i = getelementptr inbounds nuw i8, ptr %this, i64 264
  %1 = load i8, ptr %endOfMonth_.i, align 8, !tbaa !75, !range !26, !noundef !27
  %loadedv.i = trunc nuw i8 %1 to i1
  %call2 = tail call i64 @_ZNK8QuantLib8Calendar7advanceERKNS_4DateERKNS_6PeriodENS_21BusinessDayConventionEb(ptr noundef nonnull align 8 dereferenceable(16) %jointCalendar_, ptr noundef nonnull align 8 dereferenceable(8) %valueDate, ptr noundef nonnull align 4 dereferenceable(8) %tenor_, i32 noundef %0, i1 noundef zeroext %loadedv.i)
  ret i64 %call2
}